; Function Attrs: nounwind uwtable
define range(i32 -12, 1) i32 @ff_set_common_formats(ptr noundef readonly captures(none) %0, ptr noundef %1) local_unnamed_addr #3 {
  %.not = icmp eq ptr %1, null
  br i1 %.not, label %.thread57, label %.preheader69

.preheader69:                                     ; preds = %2
  %3 = getelementptr inbounds nuw i8, ptr %0, i64 40
  %4 = load i32, ptr %3, align 8, !tbaa !66
  %.not76 = icmp eq i32 %4, 0
  br i1 %.not76, label %.preheader, label %.lr.ph

.lr.ph:                                           ; preds = %.preheader69
  %5 = getelementptr inbounds nuw i8, ptr %0, i64 32
  %6 = getelementptr inbounds nuw i8, ptr %1, i64 24
  %7 = getelementptr inbounds nuw i8, ptr %1, i64 16
  br label %13

.preheader:                                       ; preds = %.thread, %.preheader69
  %8 = getelementptr inbounds nuw i8, ptr %0, i64 64
  %9 = load i32, ptr %8, align 8, !tbaa !75
  %.not77 = icmp eq i32 %9, 0
  br i1 %.not77, label %._crit_edge, label %.lr.ph75

.lr.ph75:                                         ; preds = %.preheader
  %10 = getelementptr inbounds nuw i8, ptr %0, i64 56
  %11 = getelementptr inbounds nuw i8, ptr %1, i64 24
  %12 = getelementptr inbounds nuw i8, ptr %1, i64 16
  br label %38

13:                                               ; preds = %.lr.ph, %.thread
  %14 = phi i32 [ %4, %.lr.ph ], [ %35, %.thread ]
  %indvars.iv = phi i64 [ 0, %.lr.ph ], [ %indvars.iv.next, %.thread ]
  %15 = load ptr, ptr %5, align 8, !tbaa !76
  %16 = getelementptr inbounds nuw ptr, ptr %15, i64 %indvars.iv
  %17 = load ptr, ptr %16, align 8, !tbaa !77
  %.not42 = icmp eq ptr %17, null
  br i1 %.not42, label %.thread, label %18

18:                                               ; preds = %13
  %19 = getelementptr inbounds nuw i8, ptr %17, i64 160
  %20 = load ptr, ptr %19, align 8, !tbaa !96
  %.not43 = icmp eq ptr %20, null
  br i1 %.not43, label %21, label %.thread

21:                                               ; preds = %18
  %22 = load ptr, ptr %6, align 8, !tbaa !42
  %23 = load i32, ptr %7, align 8, !tbaa !41
  %24 = add i32 %23, 1
  %25 = zext i32 %24 to i64
  %26 = tail call ptr @av_realloc_array(ptr noundef %22, i64 noundef 8, i64 noundef %25) #10
  %.not6.i = icmp eq ptr %26, null
  br i1 %.not6.i, label %.preheader.i.i, label %30

.preheader.i.i:                                   ; preds = %21
  %27 = load i32, ptr %7, align 8, !tbaa !41
  %.not26.i.i = icmp eq i32 %27, 0
  br i1 %.not26.i.i, label %.thread.thread.i.i, label %.thread57

.thread.thread.i.i:                               ; preds = %.preheader.i.i
  %28 = getelementptr inbounds nuw i8, ptr %1, i64 8
  %29 = load ptr, ptr %28, align 8, !tbaa !29
  tail call void @av_free(ptr noundef %29) #10
  br label %.thread57.sink.split

30:                                               ; preds = %21
  store ptr %26, ptr %6, align 8, !tbaa !42
  %31 = load i32, ptr %7, align 8, !tbaa !41
  %32 = add i32 %31, 1
  store i32 %32, ptr %7, align 8, !tbaa !41
  %33 = zext i32 %31 to i64
  %34 = getelementptr inbounds nuw ptr, ptr %26, i64 %33
  store ptr %19, ptr %34, align 8, !tbaa !43
  store ptr %1, ptr %19, align 8, !tbaa !23
  %.pre = load i32, ptr %3, align 8, !tbaa !66
  br label %.thread

.thread:                                          ; preds = %13, %18, %30
  %35 = phi i32 [ %14, %13 ], [ %14, %18 ], [ %.pre, %30 ]
  %indvars.iv.next = add nuw nsw i64 %indvars.iv, 1
  %36 = zext i32 %35 to i64
  %37 = icmp samesign ult i64 %indvars.iv.next, %36
  br i1 %37, label %13, label %.preheader, !llvm.loop !97

38:                                               ; preds = %.lr.ph75, %.thread61
  %39 = phi i32 [ %9, %.lr.ph75 ], [ %60, %.thread61 ]
  %indvars.iv79 = phi i64 [ 0, %.lr.ph75 ], [ %indvars.iv.next80, %.thread61 ]
  %40 = load ptr, ptr %10, align 8, !tbaa !81
  %41 = getelementptr inbounds nuw ptr, ptr %40, i64 %indvars.iv79
  %42 = load ptr, ptr %41, align 8, !tbaa !77
  %.not40 = icmp eq ptr %42, null
  br i1 %.not40, label %.thread61, label %43

43:                                               ; preds = %38
  %44 = getelementptr inbounds nuw i8, ptr %42, i64 120
  %45 = load ptr, ptr %44, align 8, !tbaa !98
  %.not41 = icmp eq ptr %45, null
  br i1 %.not41, label %46, label %.thread61

46:                                               ; preds = %43
  %47 = load ptr, ptr %11, align 8, !tbaa !42
  %48 = load i32, ptr %12, align 8, !tbaa !41
  %49 = add i32 %48, 1
  %50 = zext i32 %49 to i64
  %51 = tail call ptr @av_realloc_array(ptr noundef %47, i64 noundef 8, i64 noundef %50) #10
  %.not6.i46 = icmp eq ptr %51, null
  br i1 %.not6.i46, label %.preheader.i.i48, label %55

.preheader.i.i48:                                 ; preds = %46
  %52 = load i32, ptr %12, align 8, !tbaa !41
  %.not26.i.i49 = icmp eq i32 %52, 0
  br i1 %.not26.i.i49, label %.thread.thread.i.i50, label %.thread57

.thread.thread.i.i50:                             ; preds = %.preheader.i.i48
  %53 = getelementptr inbounds nuw i8, ptr %1, i64 8
  %54 = load ptr, ptr %53, align 8, !tbaa !29
  tail call void @av_free(ptr noundef %54) #10
  br label %.thread57.sink.split

55:                                               ; preds = %46
  store ptr %51, ptr %11, align 8, !tbaa !42
  %56 = load i32, ptr %12, align 8, !tbaa !41
  %57 = add i32 %56, 1
  store i32 %57, ptr %12, align 8, !tbaa !41
  %58 = zext i32 %56 to i64
  %59 = getelementptr inbounds nuw ptr, ptr %51, i64 %58
  store ptr %44, ptr %59, align 8, !tbaa !43
  store ptr %1, ptr %44, align 8, !tbaa !23
  %.pre82 = load i32, ptr %8, align 8, !tbaa !75
  br label %.thread61

.thread61:                                        ; preds = %38, %43, %55
  %60 = phi i32 [ %39, %38 ], [ %39, %43 ], [ %.pre82, %55 ]
  %indvars.iv.next80 = add nuw nsw i64 %indvars.iv79, 1
  %61 = zext i32 %60 to i64
  %62 = icmp samesign ult i64 %indvars.iv.next80, %61
  br i1 %62, label %38, label %._crit_edge, !llvm.loop !99

._crit_edge:                                      ; preds = %.thread61, %.preheader
  %63 = getelementptr inbounds nuw i8, ptr %1, i64 16
  %64 = load i32, ptr %63, align 8, !tbaa !41
  %.not39 = icmp eq i32 %64, 0
  br i1 %.not39, label %ff_formats_unref.exit, label %.thread57

ff_formats_unref.exit:                            ; preds = %._crit_edge
  %65 = getelementptr inbounds nuw i8, ptr %1, i64 8
  %66 = load ptr, ptr %65, align 8, !tbaa !29
  tail call void @av_free(ptr noundef %66) #10
  %67 = getelementptr inbounds nuw i8, ptr %1, i64 24
  br label %.thread57.sink.split

.thread57.sink.split:                             ; preds = %ff_formats_unref.exit, %.thread.thread.i.i, %.thread.thread.i.i50
  %.sink.in = phi ptr [ %11, %.thread.thread.i.i50 ], [ %6, %.thread.thread.i.i ], [ %67, %ff_formats_unref.exit ]
  %.0.ph = phi i32 [ -12, %.thread.thread.i.i50 ], [ -12, %.thread.thread.i.i ], [ 0, %ff_formats_unref.exit ]
  %.sink = load ptr, ptr %.sink.in, align 8, !tbaa !42
  tail call void @av_free(ptr noundef %.sink) #10
  tail call void @av_free(ptr noundef nonnull %1) #10
  br label %.thread57

.thread57:                                        ; preds = %.thread57.sink.split, %.preheader.i.i48, %.preheader.i.i, %._crit_edge, %2
  %.0 = phi i32 [ -12, %2 ], [ 0, %._crit_edge ], [ -12, %.preheader.i.i ], [ -12, %.preheader.i.i48 ], [ %.0.ph, %.thread57.sink.split ]
  ret i32 %.0
}